target datalayout = "e-m:e-p270:32:32-p271:32:32-p272:64:64-i64:64-i128:128-f80:128-n8:16:32:64-S128"
target triple = "x86_64-pc-linux-gnu"

%struct.pack_midx_entry = type { %struct.object_id, i32, i64, i64, i8 }
%struct.object_id = type { [32 x i8], i32 }

; Function Attrs: inlinehint nounwind uwtable
define internal i32 @oidcmp(ptr noundef %0, ptr noundef %1) #4 {
  %3 = alloca ptr, align 8
  %4 = alloca ptr, align 8
  store ptr %0, ptr %3, align 8, !tbaa !205
  store ptr %1, ptr %4, align 8, !tbaa !205
  %5 = load ptr, ptr %3, align 8, !tbaa !205
  %6 = getelementptr inbounds nuw %struct.object_id, ptr %5, i32 0, i32 0
  %7 = getelementptr inbounds [32 x i8], ptr %6, i64 0, i64 0
  %8 = load ptr, ptr %4, align 8, !tbaa !205
  %9 = getelementptr inbounds nuw %struct.object_id, ptr %8, i32 0, i32 0
  %10 = getelementptr inbounds [32 x i8], ptr %9, i64 0, i64 0
  %11 = call i32 @memcmp(ptr noundef %7, ptr noundef %10, i64 noundef 32) #13
  ret i32 %11
}

; Function Attrs: nounwind uwtable
define internal i32 @midx_oid_compare(ptr noundef %0, ptr noundef %1) #0 {
  %3 = alloca i32, align 4
  %4 = alloca ptr, align 8
  %5 = alloca ptr, align 8
  %6 = alloca ptr, align 8
  %7 = alloca ptr, align 8
  %8 = alloca i32, align 4
  %9 = alloca i32, align 4
  store ptr %0, ptr %4, align 8, !tbaa !137
  store ptr %1, ptr %5, align 8, !tbaa !137
  call void @llvm.lifetime.start.p0(i64 8, ptr %6) #11
  %10 = load ptr, ptr %4, align 8, !tbaa !137
  store ptr %10, ptr %6, align 8, !tbaa !152
  call void @llvm.lifetime.start.p0(i64 8, ptr %7) #11
  %11 = load ptr, ptr %5, align 8, !tbaa !137
  store ptr %11, ptr %7, align 8, !tbaa !152
  call void @llvm.lifetime.start.p0(i64 4, ptr %8) #11
  %12 = load ptr, ptr %6, align 8, !tbaa !152
  %13 = getelementptr inbounds nuw %struct.pack_midx_entry, ptr %12, i32 0, i32 0
  %14 = load ptr, ptr %7, align 8, !tbaa !152
  %15 = getelementptr inbounds nuw %struct.pack_midx_entry, ptr %14, i32 0, i32 0
  %16 = call i32 @oidcmp(ptr noundef %13, ptr noundef %15)
  store i32 %16, ptr %8, align 4, !tbaa !11
  %17 = load i32, ptr %8, align 4, !tbaa !11
  %18 = icmp ne i32 %17, 0
  br i1 %18, label %19, label %21

19:                                               ; preds = %2
  %20 = load i32, ptr %8, align 4, !tbaa !11
  store i32 %20, ptr %3, align 4
  store i32 1, ptr %9, align 4
  br label %74

21:                                               ; preds = %2
  %22 = load ptr, ptr %6, align 8, !tbaa !152
  %23 = getelementptr inbounds nuw %struct.pack_midx_entry, ptr %22, i32 0, i32 4
  %24 = load i8, ptr %23, align 8
  %25 = and i8 %24, 1
  %26 = zext i8 %25 to i32
  %27 = load ptr, ptr %7, align 8, !tbaa !152
  %28 = getelementptr inbounds nuw %struct.pack_midx_entry, ptr %27, i32 0, i32 4
  %29 = load i8, ptr %28, align 8
  %30 = and i8 %29, 1
  %31 = zext i8 %30 to i32
  %32 = icmp sgt i32 %26, %31
  br i1 %32, label %33, label %34

33:                                               ; preds = %21
  store i32 -1, ptr %3, align 4
  store i32 1, ptr %9, align 4
  br label %74

34:                                               ; preds = %21
  %35 = load ptr, ptr %6, align 8, !tbaa !152
  %36 = getelementptr inbounds nuw %struct.pack_midx_entry, ptr %35, i32 0, i32 4
  %37 = load i8, ptr %36, align 8
  %38 = and i8 %37, 1
  %39 = zext i8 %38 to i32
  %40 = load ptr, ptr %7, align 8, !tbaa !152
  %41 = getelementptr inbounds nuw %struct.pack_midx_entry, ptr %40, i32 0, i32 4
  %42 = load i8, ptr %41, align 8
  %43 = and i8 %42, 1
  %44 = zext i8 %43 to i32
  %45 = icmp slt i32 %39, %44
  br i1 %45, label %46, label %47

46:                                               ; preds = %34
  store i32 1, ptr %3, align 4
  store i32 1, ptr %9, align 4
  br label %74

47:                                               ; preds = %34
  %48 = load ptr, ptr %6, align 8, !tbaa !152
  %49 = getelementptr inbounds nuw %struct.pack_midx_entry, ptr %48, i32 0, i32 2
  %50 = load i64, ptr %49, align 8, !tbaa !207
  %51 = load ptr, ptr %7, align 8, !tbaa !152
  %52 = getelementptr inbounds nuw %struct.pack_midx_entry, ptr %51, i32 0, i32 2
  %53 = load i64, ptr %52, align 8, !tbaa !207
  %54 = icmp sgt i64 %50, %53
  br i1 %54, label %55, label %56

55:                                               ; preds = %47
  store i32 -1, ptr %3, align 4
  store i32 1, ptr %9, align 4
  br label %74

56:                                               ; preds = %47
  %57 = load ptr, ptr %6, align 8, !tbaa !152
  %58 = getelementptr inbounds nuw %struct.pack_midx_entry, ptr %57, i32 0, i32 2
  %59 = load i64, ptr %58, align 8, !tbaa !207
  %60 = load ptr, ptr %7, align 8, !tbaa !152
  %61 = getelementptr inbounds nuw %struct.pack_midx_entry, ptr %60, i32 0, i32 2
  %62 = load i64, ptr %61, align 8, !tbaa !207
  %63 = icmp slt i64 %59, %62
  br i1 %63, label %64, label %65

64:                                               ; preds = %56
  store i32 1, ptr %3, align 4
  store i32 1, ptr %9, align 4
  br label %74

65:                                               ; preds = %56
  br label %66

66:                                               ; preds = %65
  %67 = load ptr, ptr %6, align 8, !tbaa !152
  %68 = getelementptr inbounds nuw %struct.pack_midx_entry, ptr %67, i32 0, i32 1
  %69 = load i32, ptr %68, align 4, !tbaa !156
  %70 = load ptr, ptr %7, align 8, !tbaa !152
  %71 = getelementptr inbounds nuw %struct.pack_midx_entry, ptr %70, i32 0, i32 1
  %72 = load i32, ptr %71, align 4, !tbaa !156
  %73 = sub i32 %69, %72
  store i32 %73, ptr %3, align 4
  store i32 1, ptr %9, align 4
  br label %74

74:                                               ; preds = %66, %64, %55, %46, %33, %19
  call void @llvm.lifetime.end.p0(i64 4, ptr %8) #11
  call void @llvm.lifetime.end.p0(i64 8, ptr %7) #11
  call void @llvm.lifetime.end.p0(i64 8, ptr %6) #11
  %75 = load i32, ptr %3, align 4
  ret i32 %75
}