; Function Attrs: mustprogress nofree nounwind willreturn memory(argmem: read) uwtable
define internal i32 @midx_oid_compare(ptr noundef readonly captures(none) %0, ptr noundef readonly captures(none) %1) #11 {
  %3 = tail call i32 @memcmp(ptr noundef nonnull readonly dereferenceable(32) %0, ptr noundef nonnull readonly dereferenceable(32) %1, i64 noundef 32) #21
  %.not = icmp eq i32 %3, 0
  br i1 %.not, label %4, label %28

4:                                                ; preds = %2
  %5 = getelementptr inbounds nuw i8, ptr %0, i64 56
  %6 = load i8, ptr %5, align 8
  %7 = and i8 %6, 1
  %8 = getelementptr inbounds nuw i8, ptr %1, i64 56
  %9 = load i8, ptr %8, align 8
  %10 = and i8 %9, 1
  %11 = icmp samesign ugt i8 %7, %10
  br i1 %11, label %28, label %12

12:                                               ; preds = %4
  %13 = icmp samesign ult i8 %7, %10
  br i1 %13, label %28, label %14

14:                                               ; preds = %12
  %15 = getelementptr inbounds nuw i8, ptr %0, i64 40
  %16 = load i64, ptr %15, align 8, !tbaa !84
  %17 = getelementptr inbounds nuw i8, ptr %1, i64 40
  %18 = load i64, ptr %17, align 8, !tbaa !84
  %19 = icmp sgt i64 %16, %18
  br i1 %19, label %28, label %20

20:                                               ; preds = %14
  %21 = icmp slt i64 %16, %18
  br i1 %21, label %28, label %22

22:                                               ; preds = %20
  %23 = getelementptr inbounds nuw i8, ptr %0, i64 36
  %24 = load i32, ptr %23, align 4, !tbaa !81
  %25 = getelementptr inbounds nuw i8, ptr %1, i64 36
  %26 = load i32, ptr %25, align 4, !tbaa !81
  %27 = sub i32 %24, %26
  br label %28

28:                                               ; preds = %20, %14, %12, %4, %2, %22
  %.0 = phi i32 [ %27, %22 ], [ %3, %2 ], [ -1, %4 ], [ 1, %12 ], [ -1, %14 ], [ 1, %20 ]
  ret i32 %.0
}